; Function Attrs: mustprogress uwtable
define noundef zeroext i1 @_ZNK6icu_7521TimeArrayTimeZoneRuleeqERKNS_12TimeZoneRuleE(ptr noundef nonnull align 8 dereferenceable(352) %this, ptr noundef nonnull align 8 dereferenceable(80) %that) unnamed_addr #0 align 2 {
entry:
  %cmp = icmp eq ptr %this, %that
  br i1 %cmp, label %return, label %typeid.end

typeid.end:                                       ; preds = %entry
  %vtable = load ptr, ptr %this, align 8
  %0 = getelementptr inbounds i8, ptr %vtable, i64 -8
  %1 = load ptr, ptr %0, align 8
  %vtable2 = load ptr, ptr %that, align 8
  %2 = getelementptr inbounds i8, ptr %vtable2, i64 -8
  %3 = load ptr, ptr %2, align 8
  %__name.i.i = getelementptr inbounds i8, ptr %1, i64 8
  %4 = load ptr, ptr %__name.i.i, align 8
  %__name2.i.i = getelementptr inbounds i8, ptr %3, i64 8
  %5 = load ptr, ptr %__name2.i.i, align 8
  %cmp.i.i = icmp eq ptr %4, %5
  br i1 %cmp.i.i, label %lor.lhs.false, label %if.end.i.i

if.end.i.i:                                       ; preds = %typeid.end
  %6 = load i8, ptr %4, align 1
  %cmp4.not.i.i = icmp eq i8 %6, 42
  br i1 %cmp4.not.i.i, label %return, label %_ZNKSt9type_infoneERKS_.exit

_ZNKSt9type_infoneERKS_.exit:                     ; preds = %if.end.i.i
  %7 = load i8, ptr %5, align 1
  %cmp.i.i.i = icmp eq i8 %7, 42
  %cond.idx.i.i.i = zext i1 %cmp.i.i.i to i64
  %cond.i.i.i = getelementptr inbounds i8, ptr %5, i64 %cond.idx.i.i.i
  %call6.i.i = tail call i32 @strcmp(ptr noundef nonnull dereferenceable(1) %4, ptr noundef nonnull dereferenceable(1) %cond.i.i.i) #16
  %cmp7.i.i.not = icmp eq i32 %call6.i.i, 0
  br i1 %cmp7.i.i.not, label %lor.lhs.false, label %return

lor.lhs.false:                                    ; preds = %typeid.end, %_ZNKSt9type_infoneERKS_.exit
  %call3 = tail call noundef zeroext i1 @_ZNK6icu_7512TimeZoneRuleeqERKS0_(ptr noundef nonnull align 8 dereferenceable(80) %this, ptr noundef nonnull align 8 dereferenceable(80) %that)
  br i1 %call3, label %if.end5, label %return

if.end5:                                          ; preds = %lor.lhs.false
  %fTimeRuleType = getelementptr inbounds i8, ptr %this, i64 80
  %8 = load i32, ptr %fTimeRuleType, align 8
  %fTimeRuleType6 = getelementptr inbounds i8, ptr %that, i64 80
  %9 = load i32, ptr %fTimeRuleType6, align 8
  %cmp7.not = icmp eq i32 %8, %9
  br i1 %cmp7.not, label %lor.lhs.false8, label %return

lor.lhs.false8:                                   ; preds = %if.end5
  %fNumStartTimes = getelementptr inbounds i8, ptr %this, i64 84
  %10 = load i32, ptr %fNumStartTimes, align 4
  %fNumStartTimes9 = getelementptr inbounds i8, ptr %that, i64 84
  %11 = load i32, ptr %fNumStartTimes9, align 4
  %cmp10.not = icmp eq i32 %10, %11
  br i1 %cmp10.not, label %for.cond.preheader, label %return

for.cond.preheader:                               ; preds = %lor.lhs.false8
  %cmp14.not12 = icmp sgt i32 %10, 0
  br i1 %cmp14.not12, label %for.body.lr.ph, label %return

for.body.lr.ph:                                   ; preds = %for.cond.preheader
  %fStartTimes = getelementptr inbounds i8, ptr %this, i64 88
  %12 = load ptr, ptr %fStartTimes, align 8
  %fStartTimes15 = getelementptr inbounds i8, ptr %that, i64 88
  %13 = load ptr, ptr %fStartTimes15, align 8
  %wide.trip.count = zext nneg i32 %10 to i64
  br label %for.body

for.body:                                         ; preds = %for.body, %for.body.lr.ph
  %indvars.iv = phi i64 [ 0, %for.body.lr.ph ], [ %indvars.iv.next, %for.body ]
  %arrayidx = getelementptr inbounds double, ptr %12, i64 %indvars.iv
  %14 = load double, ptr %arrayidx, align 8
  %arrayidx17 = getelementptr inbounds double, ptr %13, i64 %indvars.iv
  %15 = load double, ptr %arrayidx17, align 8
  %cmp18 = fcmp oeq double %14, %15
  %indvars.iv.next = add nuw nsw i64 %indvars.iv, 1
  %exitcond.not = icmp ne i64 %indvars.iv.next, %wide.trip.count
  %or.cond.not = select i1 %cmp18, i1 %exitcond.not, i1 false
  br i1 %or.cond.not, label %for.body, label %return, !llvm.loop !5

return:                                           ; preds = %for.body, %for.cond.preheader, %if.end.i.i, %if.end5, %lor.lhs.false8, %_ZNKSt9type_infoneERKS_.exit, %lor.lhs.false, %entry
  %retval.0 = phi i1 [ true, %entry ], [ false, %lor.lhs.false ], [ false, %_ZNKSt9type_infoneERKS_.exit ], [ false, %lor.lhs.false8 ], [ false, %if.end5 ], [ false, %if.end.i.i ], [ true, %for.cond.preheader ], [ %cmp18, %for.body ]
  ret i1 %retval.0
}